target datalayout = "e-m:e-p270:32:32-p271:32:32-p272:64:64-i64:64-i128:128-f80:128-n8:16:32:64-S128"
target triple = "x86_64-pc-linux-gnu"

%struct.slurm_ops_t = type { ptr, ptr, ptr, ptr, ptr, ptr, ptr, ptr, ptr, ptr, ptr, ptr, ptr, ptr, ptr, ptr, ptr, ptr, ptr, ptr, ptr, ptr, ptr }

@plugin_inited = internal global i32 0, align 4
@ops = internal global %struct.slurm_ops_t zeroinitializer, align 8

; Function Attrs: nounwind uwtable
define dso_local i32 @cgroup_g_constrain_apply(i32 noundef %0, i32 noundef %1, i32 noundef %2) #0 {
  %4 = alloca i32, align 4
  %5 = alloca i32, align 4
  %6 = alloca i32, align 4
  %7 = alloca i32, align 4
  store i32 %0, ptr %5, align 4
  store i32 %1, ptr %6, align 4
  store i32 %2, ptr %7, align 4
  %8 = load i32, ptr @plugin_inited, align 4
  %9 = icmp eq i32 %8, 1
  br i1 %9, label %10, label %11

10:                                               ; preds = %3
  store i32 0, ptr %4, align 4
  br label %17

11:                                               ; preds = %3
  %12 = load ptr, ptr getelementptr inbounds nuw (%struct.slurm_ops_t, ptr @ops, i32 0, i32 13), align 8
  %13 = load i32, ptr %5, align 4
  %14 = load i32, ptr %6, align 4
  %15 = load i32, ptr %7, align 4
  %16 = call i32 %12(i32 noundef %13, i32 noundef %14, i32 noundef %15)
  store i32 %16, ptr %4, align 4
  br label %17

17:                                               ; preds = %11, %10
  %18 = load i32, ptr %4, align 4
  ret i32 %18
}