; Function Attrs: nounwind uwtable
define dso_local i32 @cgroup_g_constrain_apply(i32 noundef %0, i32 noundef %1, i32 noundef %2) local_unnamed_addr #0 {
  %4 = load i32, ptr @plugin_inited, align 4
  %5 = icmp eq i32 %4, 1
  br i1 %5, label %9, label %6

6:                                                ; preds = %3
  %7 = load ptr, ptr getelementptr inbounds nuw (i8, ptr @ops, i64 104), align 8
  %8 = tail call i32 %7(i32 noundef %0, i32 noundef %1, i32 noundef %2) #12
  br label %9

9:                                                ; preds = %3, %6
  %.0 = phi i32 [ %8, %6 ], [ 0, %3 ]
  ret i32 %.0
}